target datalayout = "e-m:e-p270:32:32-p271:32:32-p272:64:64-i64:64-i128:128-f80:128-n8:16:32:64-S128"
target triple = "x86_64-unknown-linux-gnu"

%"class.arrow::Status" = type { ptr }
%"union.std::aligned_storage<8, 8>::type" = type { [8 x i8] }
%"class.arrow::Result.20" = type { %"class.arrow::Status", %"class.arrow::internal::AlignedStorage.23" }
%"class.arrow::internal::AlignedStorage.23" = type { %"union.std::aligned_storage<8, 8>::type" }

; Function Attrs: uwtable
define void @_ZTv0_n32_N5arrow2io20TransformInputStream4ReadElPv(ptr noalias sret(%"class.arrow::Result.20") align 8 %agg.result, ptr noundef %this, i64 noundef %nbytes, ptr noundef %out) unnamed_addr #6 align 2 {
entry:
  %result.ptr = alloca ptr, align 8
  %this.addr = alloca ptr, align 8
  %nbytes.addr = alloca i64, align 8
  %out.addr = alloca ptr, align 8
  store ptr %agg.result, ptr %result.ptr, align 8
  store ptr %this, ptr %this.addr, align 8
  store i64 %nbytes, ptr %nbytes.addr, align 8
  store ptr %out, ptr %out.addr, align 8
  %this1 = load ptr, ptr %this.addr, align 8
  %0 = load ptr, ptr %this1, align 8
  %1 = getelementptr inbounds i8, ptr %0, i64 -32
  %2 = load i64, ptr %1, align 8
  %3 = getelementptr inbounds i8, ptr %this1, i64 %2
  %4 = load i64, ptr %nbytes.addr, align 8
  %5 = load ptr, ptr %out.addr, align 8
  tail call void @_ZN5arrow2io20TransformInputStream4ReadElPv(ptr sret(%"class.arrow::Result.20") align 8 %agg.result, ptr noundef nonnull align 8 dereferenceable(16) %3, i64 noundef %4, ptr noundef %5)
  ret void
}